
chall:     file format elf64-x86-64


Disassembly of section .init:

0000000000001000 <_init>:
    1000:	f3 0f 1e fa          	endbr64 
    1004:	48 83 ec 08          	sub    $0x8,%rsp
    1008:	48 8b 05 d9 2f 00 00 	mov    0x2fd9(%rip),%rax        # 3fe8 <__gmon_start__>
    100f:	48 85 c0             	test   %rax,%rax
    1012:	74 02                	je     1016 <_init+0x16>
    1014:	ff d0                	call   *%rax
    1016:	48 83 c4 08          	add    $0x8,%rsp
    101a:	c3                   	ret    

Disassembly of section .plt:

0000000000001020 <.plt>:
    1020:	ff 35 62 2f 00 00    	push   0x2f62(%rip)        # 3f88 <_GLOBAL_OFFSET_TABLE_+0x8>
    1026:	f2 ff 25 63 2f 00 00 	bnd jmp *0x2f63(%rip)        # 3f90 <_GLOBAL_OFFSET_TABLE_+0x10>
    102d:	0f 1f 00             	nopl   (%rax)
    1030:	f3 0f 1e fa          	endbr64 
    1034:	68 00 00 00 00       	push   $0x0
    1039:	f2 e9 e1 ff ff ff    	bnd jmp 1020 <.plt>
    103f:	90                   	nop
    1040:	f3 0f 1e fa          	endbr64 
    1044:	68 01 00 00 00       	push   $0x1
    1049:	f2 e9 d1 ff ff ff    	bnd jmp 1020 <.plt>
    104f:	90                   	nop
    1050:	f3 0f 1e fa          	endbr64 
    1054:	68 02 00 00 00       	push   $0x2
    1059:	f2 e9 c1 ff ff ff    	bnd jmp 1020 <.plt>
    105f:	90                   	nop
    1060:	f3 0f 1e fa          	endbr64 
    1064:	68 03 00 00 00       	push   $0x3
    1069:	f2 e9 b1 ff ff ff    	bnd jmp 1020 <.plt>
    106f:	90                   	nop
    1070:	f3 0f 1e fa          	endbr64 
    1074:	68 04 00 00 00       	push   $0x4
    1079:	f2 e9 a1 ff ff ff    	bnd jmp 1020 <.plt>
    107f:	90                   	nop
    1080:	f3 0f 1e fa          	endbr64 
    1084:	68 05 00 00 00       	push   $0x5
    1089:	f2 e9 91 ff ff ff    	bnd jmp 1020 <.plt>
    108f:	90                   	nop
    1090:	f3 0f 1e fa          	endbr64 
    1094:	68 06 00 00 00       	push   $0x6
    1099:	f2 e9 81 ff ff ff    	bnd jmp 1020 <.plt>
    109f:	90                   	nop
    10a0:	f3 0f 1e fa          	endbr64 
    10a4:	68 07 00 00 00       	push   $0x7
    10a9:	f2 e9 71 ff ff ff    	bnd jmp 1020 <.plt>
    10af:	90                   	nop

Disassembly of section .plt.got:

00000000000010b0 <__cxa_finalize@plt>:
    10b0:	f3 0f 1e fa          	endbr64 
    10b4:	f2 ff 25 3d 2f 00 00 	bnd jmp *0x2f3d(%rip)        # 3ff8 <__cxa_finalize@GLIBC_2.2.5>
    10bb:	0f 1f 44 00 00       	nopl   0x0(%rax,%rax,1)

Disassembly of section .plt.sec:

00000000000010c0 <puts@plt>:
    10c0:	f3 0f 1e fa          	endbr64 
    10c4:	f2 ff 25 cd 2e 00 00 	bnd jmp *0x2ecd(%rip)        # 3f98 <puts@GLIBC_2.2.5>
    10cb:	0f 1f 44 00 00       	nopl   0x0(%rax,%rax,1)

00000000000010d0 <printf@plt>:
    10d0:	f3 0f 1e fa          	endbr64 
    10d4:	f2 ff 25 c5 2e 00 00 	bnd jmp *0x2ec5(%rip)        # 3fa0 <printf@GLIBC_2.2.5>
    10db:	0f 1f 44 00 00       	nopl   0x0(%rax,%rax,1)

00000000000010e0 <fgets@plt>:
    10e0:	f3 0f 1e fa          	endbr64 
    10e4:	f2 ff 25 bd 2e 00 00 	bnd jmp *0x2ebd(%rip)        # 3fa8 <fgets@GLIBC_2.2.5>
    10eb:	0f 1f 44 00 00       	nopl   0x0(%rax,%rax,1)

00000000000010f0 <strcmp@plt>:
    10f0:	f3 0f 1e fa          	endbr64 
    10f4:	f2 ff 25 b5 2e 00 00 	bnd jmp *0x2eb5(%rip)        # 3fb0 <strcmp@GLIBC_2.2.5>
    10fb:	0f 1f 44 00 00       	nopl   0x0(%rax,%rax,1)

0000000000001100 <getchar@plt>:
    1100:	f3 0f 1e fa          	endbr64 
    1104:	f2 ff 25 ad 2e 00 00 	bnd jmp *0x2ead(%rip)        # 3fb8 <getchar@GLIBC_2.2.5>
    110b:	0f 1f 44 00 00       	nopl   0x0(%rax,%rax,1)

0000000000001110 <setvbuf@plt>:
    1110:	f3 0f 1e fa          	endbr64 
    1114:	f2 ff 25 a5 2e 00 00 	bnd jmp *0x2ea5(%rip)        # 3fc0 <setvbuf@GLIBC_2.2.5>
    111b:	0f 1f 44 00 00       	nopl   0x0(%rax,%rax,1)

0000000000001120 <__isoc99_scanf@plt>:
    1120:	f3 0f 1e fa          	endbr64 
    1124:	f2 ff 25 9d 2e 00 00 	bnd jmp *0x2e9d(%rip)        # 3fc8 <__isoc99_scanf@GLIBC_2.7>
    112b:	0f 1f 44 00 00       	nopl   0x0(%rax,%rax,1)

0000000000001130 <exit@plt>:
    1130:	f3 0f 1e fa          	endbr64 
    1134:	f2 ff 25 95 2e 00 00 	bnd jmp *0x2e95(%rip)        # 3fd0 <exit@GLIBC_2.2.5>
    113b:	0f 1f 44 00 00       	nopl   0x0(%rax,%rax,1)

Disassembly of section .text:

0000000000001140 <_start>:
    1140:	f3 0f 1e fa          	endbr64 
    1144:	31 ed                	xor    %ebp,%ebp
    1146:	49 89 d1             	mov    %rdx,%r9
    1149:	5e                   	pop    %rsi
    114a:	48 89 e2             	mov    %rsp,%rdx
    114d:	48 83 e4 f0          	and    $0xfffffffffffffff0,%rsp
    1151:	50                   	push   %rax
    1152:	54                   	push   %rsp
    1153:	4c 8d 05 86 05 00 00 	lea    0x586(%rip),%r8        # 16e0 <__libc_csu_fini>
    115a:	48 8d 0d 0f 05 00 00 	lea    0x50f(%rip),%rcx        # 1670 <__libc_csu_init>
    1161:	48 8d 3d de 04 00 00 	lea    0x4de(%rip),%rdi        # 1646 <main>
    1168:	ff 15 72 2e 00 00    	call   *0x2e72(%rip)        # 3fe0 <__libc_start_main@GLIBC_2.2.5>
    116e:	f4                   	hlt    
    116f:	90                   	nop

0000000000001170 <deregister_tm_clones>:
    1170:	48 8d 3d 99 2e 00 00 	lea    0x2e99(%rip),%rdi        # 4010 <__TMC_END__>
    1177:	48 8d 05 92 2e 00 00 	lea    0x2e92(%rip),%rax        # 4010 <__TMC_END__>
    117e:	48 39 f8             	cmp    %rdi,%rax
    1181:	74 15                	je     1198 <deregister_tm_clones+0x28>
    1183:	48 8b 05 4e 2e 00 00 	mov    0x2e4e(%rip),%rax        # 3fd8 <_ITM_deregisterTMCloneTable>
    118a:	48 85 c0             	test   %rax,%rax
    118d:	74 09                	je     1198 <deregister_tm_clones+0x28>
    118f:	ff e0                	jmp    *%rax
    1191:	0f 1f 80 00 00 00 00 	nopl   0x0(%rax)
    1198:	c3                   	ret    
    1199:	0f 1f 80 00 00 00 00 	nopl   0x0(%rax)

00000000000011a0 <register_tm_clones>:
    11a0:	48 8d 3d 69 2e 00 00 	lea    0x2e69(%rip),%rdi        # 4010 <__TMC_END__>
    11a7:	48 8d 35 62 2e 00 00 	lea    0x2e62(%rip),%rsi        # 4010 <__TMC_END__>
    11ae:	48 29 fe             	sub    %rdi,%rsi
    11b1:	48 89 f0             	mov    %rsi,%rax
    11b4:	48 c1 ee 3f          	shr    $0x3f,%rsi
    11b8:	48 c1 f8 03          	sar    $0x3,%rax
    11bc:	48 01 c6             	add    %rax,%rsi
    11bf:	48 d1 fe             	sar    %rsi
    11c2:	74 14                	je     11d8 <register_tm_clones+0x38>
    11c4:	48 8b 05 25 2e 00 00 	mov    0x2e25(%rip),%rax        # 3ff0 <_ITM_registerTMCloneTable>
    11cb:	48 85 c0             	test   %rax,%rax
    11ce:	74 08                	je     11d8 <register_tm_clones+0x38>
    11d0:	ff e0                	jmp    *%rax
    11d2:	66 0f 1f 44 00 00    	nopw   0x0(%rax,%rax,1)
    11d8:	c3                   	ret    
    11d9:	0f 1f 80 00 00 00 00 	nopl   0x0(%rax)

00000000000011e0 <__do_global_dtors_aux>:
    11e0:	f3 0f 1e fa          	endbr64 
    11e4:	80 3d 5d 2e 00 00 00 	cmpb   $0x0,0x2e5d(%rip)        # 4048 <completed.8061>
    11eb:	75 2b                	jne    1218 <__do_global_dtors_aux+0x38>
    11ed:	55                   	push   %rbp
    11ee:	48 83 3d 02 2e 00 00 	cmpq   $0x0,0x2e02(%rip)        # 3ff8 <__cxa_finalize@GLIBC_2.2.5>
    11f5:	00 
    11f6:	48 89 e5             	mov    %rsp,%rbp
    11f9:	74 0c                	je     1207 <__do_global_dtors_aux+0x27>
    11fb:	48 8b 3d 06 2e 00 00 	mov    0x2e06(%rip),%rdi        # 4008 <__dso_handle>
    1202:	e8 a9 fe ff ff       	call   10b0 <__cxa_finalize@plt>
    1207:	e8 64 ff ff ff       	call   1170 <deregister_tm_clones>
    120c:	c6 05 35 2e 00 00 01 	movb   $0x1,0x2e35(%rip)        # 4048 <completed.8061>
    1213:	5d                   	pop    %rbp
    1214:	c3                   	ret    
    1215:	0f 1f 00             	nopl   (%rax)
    1218:	c3                   	ret    
    1219:	0f 1f 80 00 00 00 00 	nopl   0x0(%rax)

0000000000001220 <frame_dummy>:
    1220:	f3 0f 1e fa          	endbr64 
    1224:	e9 77 ff ff ff       	jmp    11a0 <register_tm_clones>

0000000000001229 <init>:
    1229:	f3 0f 1e fa          	endbr64 
    122d:	55                   	push   %rbp
    122e:	48 89 e5             	mov    %rsp,%rbp
    1231:	48 8b 05 e8 2d 00 00 	mov    0x2de8(%rip),%rax        # 4020 <stdout@GLIBC_2.2.5>
    1238:	b9 00 00 00 00       	mov    $0x0,%ecx
    123d:	ba 02 00 00 00       	mov    $0x2,%edx
    1242:	be 00 00 00 00       	mov    $0x0,%esi
    1247:	48 89 c7             	mov    %rax,%rdi
    124a:	e8 c1 fe ff ff       	call   1110 <setvbuf@plt>
    124f:	48 8b 05 da 2d 00 00 	mov    0x2dda(%rip),%rax        # 4030 <stdin@GLIBC_2.2.5>
    1256:	b9 00 00 00 00       	mov    $0x0,%ecx
    125b:	ba 02 00 00 00       	mov    $0x2,%edx
    1260:	be 00 00 00 00       	mov    $0x0,%esi
    1265:	48 89 c7             	mov    %rax,%rdi
    1268:	e8 a3 fe ff ff       	call   1110 <setvbuf@plt>
    126d:	48 8b 05 cc 2d 00 00 	mov    0x2dcc(%rip),%rax        # 4040 <stderr@GLIBC_2.2.5>
    1274:	b9 00 00 00 00       	mov    $0x0,%ecx
    1279:	ba 02 00 00 00       	mov    $0x2,%edx
    127e:	be 00 00 00 00       	mov    $0x0,%esi
    1283:	48 89 c7             	mov    %rax,%rdi
    1286:	e8 85 fe ff ff       	call   1110 <setvbuf@plt>
    128b:	90                   	nop
    128c:	5d                   	pop    %rbp
    128d:	c3                   	ret    

000000000000128e <share>:
    128e:	f3 0f 1e fa          	endbr64 
    1292:	55                   	push   %rbp
    1293:	48 89 e5             	mov    %rsp,%rbp
    1296:	48 83 ec 70          	sub    $0x70,%rsp
    129a:	48 8d 3d 67 0d 00 00 	lea    0xd67(%rip),%rdi        # 2008 <_IO_stdin_used+0x8>
    12a1:	e8 1a fe ff ff       	call   10c0 <puts@plt>
    12a6:	48 8d 3d 5c 0d 00 00 	lea    0xd5c(%rip),%rdi        # 2009 <_IO_stdin_used+0x9>
    12ad:	e8 0e fe ff ff       	call   10c0 <puts@plt>
    12b2:	48 8d 3d 68 0d 00 00 	lea    0xd68(%rip),%rdi        # 2021 <_IO_stdin_used+0x21>
    12b9:	e8 02 fe ff ff       	call   10c0 <puts@plt>
    12be:	48 8d 3d 44 0d 00 00 	lea    0xd44(%rip),%rdi        # 2009 <_IO_stdin_used+0x9>
    12c5:	e8 f6 fd ff ff       	call   10c0 <puts@plt>
    12ca:	48 8d 3d 37 0d 00 00 	lea    0xd37(%rip),%rdi        # 2008 <_IO_stdin_used+0x8>
    12d1:	e8 ea fd ff ff       	call   10c0 <puts@plt>
    12d6:	48 8d 3d 5c 0d 00 00 	lea    0xd5c(%rip),%rdi        # 2039 <_IO_stdin_used+0x39>
    12dd:	b8 00 00 00 00       	mov    $0x0,%eax
    12e2:	e8 e9 fd ff ff       	call   10d0 <printf@plt>
    12e7:	48 8b 15 42 2d 00 00 	mov    0x2d42(%rip),%rdx        # 4030 <stdin@GLIBC_2.2.5>
    12ee:	48 8d 45 90          	lea    -0x70(%rbp),%rax
    12f2:	be 64 00 00 00       	mov    $0x64,%esi
    12f7:	48 89 c7             	mov    %rax,%rdi
    12fa:	e8 e1 fd ff ff       	call   10e0 <fgets@plt>
    12ff:	48 8d 3d 42 0d 00 00 	lea    0xd42(%rip),%rdi        # 2048 <_IO_stdin_used+0x48>
    1306:	e8 b5 fd ff ff       	call   10c0 <puts@plt>
    130b:	90                   	nop
    130c:	c9                   	leave  
    130d:	c3                   	ret    

000000000000130e <user_login>:
    130e:	f3 0f 1e fa          	endbr64 
    1312:	55                   	push   %rbp
    1313:	48 89 e5             	mov    %rsp,%rbp
    1316:	48 83 ec 10          	sub    $0x10,%rsp
    131a:	48 8d 3d e7 0c 00 00 	lea    0xce7(%rip),%rdi        # 2008 <_IO_stdin_used+0x8>
    1321:	e8 9a fd ff ff       	call   10c0 <puts@plt>
    1326:	48 8d 3d dc 0c 00 00 	lea    0xcdc(%rip),%rdi        # 2009 <_IO_stdin_used+0x9>
    132d:	e8 8e fd ff ff       	call   10c0 <puts@plt>
    1332:	48 8d 3d e8 0c 00 00 	lea    0xce8(%rip),%rdi        # 2021 <_IO_stdin_used+0x21>
    1339:	e8 82 fd ff ff       	call   10c0 <puts@plt>
    133e:	48 8d 3d c4 0c 00 00 	lea    0xcc4(%rip),%rdi        # 2009 <_IO_stdin_used+0x9>
    1345:	e8 76 fd ff ff       	call   10c0 <puts@plt>
    134a:	48 8d 3d b7 0c 00 00 	lea    0xcb7(%rip),%rdi        # 2008 <_IO_stdin_used+0x8>
    1351:	e8 6a fd ff ff       	call   10c0 <puts@plt>
    1356:	48 8d 3d 1d 0d 00 00 	lea    0xd1d(%rip),%rdi        # 207a <_IO_stdin_used+0x7a>
    135d:	b8 00 00 00 00       	mov    $0x0,%eax
    1362:	e8 69 fd ff ff       	call   10d0 <printf@plt>
    1367:	48 8d 45 f5          	lea    -0xb(%rbp),%rax
    136b:	48 89 c6             	mov    %rax,%rsi
    136e:	48 8d 3d 16 0d 00 00 	lea    0xd16(%rip),%rdi        # 208b <_IO_stdin_used+0x8b>
    1375:	b8 00 00 00 00       	mov    $0x0,%eax
    137a:	e8 a1 fd ff ff       	call   1120 <__isoc99_scanf@plt>
    137f:	e8 7c fd ff ff       	call   1100 <getchar@plt>
    1384:	48 8d 45 f5          	lea    -0xb(%rbp),%rax
    1388:	48 8d 35 01 0d 00 00 	lea    0xd01(%rip),%rsi        # 2090 <_IO_stdin_used+0x90>
    138f:	48 89 c7             	mov    %rax,%rdi
    1392:	e8 59 fd ff ff       	call   10f0 <strcmp@plt>
    1397:	85 c0                	test   %eax,%eax
    1399:	0f 85 e8 00 00 00    	jne    1487 <user_login+0x179>
    139f:	48 8d 45 f5          	lea    -0xb(%rbp),%rax
    13a3:	48 89 c6             	mov    %rax,%rsi
    13a6:	48 8d 3d ed 0c 00 00 	lea    0xced(%rip),%rdi        # 209a <_IO_stdin_used+0x9a>
    13ad:	b8 00 00 00 00       	mov    $0x0,%eax
    13b2:	e8 19 fd ff ff       	call   10d0 <printf@plt>
    13b7:	48 8d 3d 4a 0c 00 00 	lea    0xc4a(%rip),%rdi        # 2008 <_IO_stdin_used+0x8>
    13be:	e8 fd fc ff ff       	call   10c0 <puts@plt>
    13c3:	48 8d 3d 3e 0c 00 00 	lea    0xc3e(%rip),%rdi        # 2008 <_IO_stdin_used+0x8>
    13ca:	e8 f1 fc ff ff       	call   10c0 <puts@plt>
    13cf:	48 8d 3d 33 0c 00 00 	lea    0xc33(%rip),%rdi        # 2009 <_IO_stdin_used+0x9>
    13d6:	e8 e5 fc ff ff       	call   10c0 <puts@plt>
    13db:	48 8d 3d 3f 0c 00 00 	lea    0xc3f(%rip),%rdi        # 2021 <_IO_stdin_used+0x21>
    13e2:	e8 d9 fc ff ff       	call   10c0 <puts@plt>
    13e7:	48 8d 3d 1b 0c 00 00 	lea    0xc1b(%rip),%rdi        # 2009 <_IO_stdin_used+0x9>
    13ee:	e8 cd fc ff ff       	call   10c0 <puts@plt>
    13f3:	48 8d 3d b4 0c 00 00 	lea    0xcb4(%rip),%rdi        # 20ae <_IO_stdin_used+0xae>
    13fa:	e8 c1 fc ff ff       	call   10c0 <puts@plt>
    13ff:	48 8d 3d c0 0c 00 00 	lea    0xcc0(%rip),%rdi        # 20c6 <_IO_stdin_used+0xc6>
    1406:	e8 b5 fc ff ff       	call   10c0 <puts@plt>
    140b:	48 8d 3d f7 0b 00 00 	lea    0xbf7(%rip),%rdi        # 2009 <_IO_stdin_used+0x9>
    1412:	e8 a9 fc ff ff       	call   10c0 <puts@plt>
    1417:	48 8d 3d c0 0c 00 00 	lea    0xcc0(%rip),%rdi        # 20de <_IO_stdin_used+0xde>
    141e:	b8 00 00 00 00       	mov    $0x0,%eax
    1423:	e8 a8 fc ff ff       	call   10d0 <printf@plt>
    1428:	48 8d 45 f0          	lea    -0x10(%rbp),%rax
    142c:	48 89 c6             	mov    %rax,%rsi
    142f:	48 8d 3d ac 0c 00 00 	lea    0xcac(%rip),%rdi        # 20e2 <_IO_stdin_used+0xe2>
    1436:	b8 00 00 00 00       	mov    $0x0,%eax
    143b:	e8 e0 fc ff ff       	call   1120 <__isoc99_scanf@plt>
    1440:	e8 bb fc ff ff       	call   1100 <getchar@plt>
    1445:	8b 45 f0             	mov    -0x10(%rbp),%eax
    1448:	83 f8 01             	cmp    $0x1,%eax
    144b:	74 07                	je     1454 <user_login+0x146>
    144d:	83 f8 02             	cmp    $0x2,%eax
    1450:	74 43                	je     1495 <user_login+0x187>
    1452:	eb 0c                	jmp    1460 <user_login+0x152>
    1454:	b8 00 00 00 00       	mov    $0x0,%eax
    1459:	e8 30 fe ff ff       	call   128e <share>
    145e:	eb 19                	jmp    1479 <user_login+0x16b>
    1460:	48 8d 3d a1 0b 00 00 	lea    0xba1(%rip),%rdi        # 2008 <_IO_stdin_used+0x8>
    1467:	e8 54 fc ff ff       	call   10c0 <puts@plt>
    146c:	48 8d 3d 73 0c 00 00 	lea    0xc73(%rip),%rdi        # 20e6 <_IO_stdin_used+0xe6>
    1473:	e8 48 fc ff ff       	call   10c0 <puts@plt>
    1478:	90                   	nop
    1479:	8b 45 f0             	mov    -0x10(%rbp),%eax
    147c:	83 f8 02             	cmp    $0x2,%eax
    147f:	0f 85 4a ff ff ff    	jne    13cf <user_login+0xc1>
    1485:	eb 0f                	jmp    1496 <user_login+0x188>
    1487:	48 8d 3d 68 0c 00 00 	lea    0xc68(%rip),%rdi        # 20f6 <_IO_stdin_used+0xf6>
    148e:	e8 2d fc ff ff       	call   10c0 <puts@plt>
    1493:	eb 01                	jmp    1496 <user_login+0x188>
    1495:	90                   	nop
    1496:	c9                   	leave  
    1497:	c3                   	ret    

0000000000001498 <admin_login>:
    1498:	f3 0f 1e fa          	endbr64 
    149c:	55                   	push   %rbp
    149d:	48 89 e5             	mov    %rsp,%rbp
    14a0:	48 83 ec 70          	sub    $0x70,%rsp
    14a4:	48 8d 45 90          	lea    -0x70(%rbp),%rax
    14a8:	48 89 c6             	mov    %rax,%rsi
    14ab:	48 8d 3d 5e 0c 00 00 	lea    0xc5e(%rip),%rdi        # 2110 <_IO_stdin_used+0x110>
    14b2:	b8 00 00 00 00       	mov    $0x0,%eax
    14b7:	e8 14 fc ff ff       	call   10d0 <printf@plt>
    14bc:	48 8d 3d 45 0b 00 00 	lea    0xb45(%rip),%rdi        # 2008 <_IO_stdin_used+0x8>
    14c3:	e8 f8 fb ff ff       	call   10c0 <puts@plt>
    14c8:	48 8d 3d 3a 0b 00 00 	lea    0xb3a(%rip),%rdi        # 2009 <_IO_stdin_used+0x9>
    14cf:	e8 ec fb ff ff       	call   10c0 <puts@plt>
    14d4:	48 8d 3d 46 0b 00 00 	lea    0xb46(%rip),%rdi        # 2021 <_IO_stdin_used+0x21>
    14db:	e8 e0 fb ff ff       	call   10c0 <puts@plt>
    14e0:	48 8d 3d 22 0b 00 00 	lea    0xb22(%rip),%rdi        # 2009 <_IO_stdin_used+0x9>
    14e7:	e8 d4 fb ff ff       	call   10c0 <puts@plt>
    14ec:	48 8d 3d 15 0b 00 00 	lea    0xb15(%rip),%rdi        # 2008 <_IO_stdin_used+0x8>
    14f3:	e8 c8 fb ff ff       	call   10c0 <puts@plt>
    14f8:	48 8d 3d 7b 0b 00 00 	lea    0xb7b(%rip),%rdi        # 207a <_IO_stdin_used+0x7a>
    14ff:	b8 00 00 00 00       	mov    $0x0,%eax
    1504:	e8 c7 fb ff ff       	call   10d0 <printf@plt>
    1509:	48 8b 15 20 2b 00 00 	mov    0x2b20(%rip),%rdx        # 4030 <stdin@GLIBC_2.2.5>
    1510:	48 8d 45 90          	lea    -0x70(%rbp),%rax
    1514:	be b4 00 00 00       	mov    $0xb4,%esi
    1519:	48 89 c7             	mov    %rax,%rdi
    151c:	e8 bf fb ff ff       	call   10e0 <fgets@plt>
    1521:	90                   	nop
    1522:	c9                   	leave  
    1523:	c3                   	ret    

0000000000001524 <menu>:
    1524:	f3 0f 1e fa          	endbr64 
    1528:	55                   	push   %rbp
    1529:	48 89 e5             	mov    %rsp,%rbp
    152c:	48 83 ec 70          	sub    $0x70,%rsp
    1530:	48 8d 3d d1 0a 00 00 	lea    0xad1(%rip),%rdi        # 2008 <_IO_stdin_used+0x8>
    1537:	e8 84 fb ff ff       	call   10c0 <puts@plt>
    153c:	48 8d 3d c6 0a 00 00 	lea    0xac6(%rip),%rdi        # 2009 <_IO_stdin_used+0x9>
    1543:	e8 78 fb ff ff       	call   10c0 <puts@plt>
    1548:	48 8d 3d d2 0a 00 00 	lea    0xad2(%rip),%rdi        # 2021 <_IO_stdin_used+0x21>
    154f:	e8 6c fb ff ff       	call   10c0 <puts@plt>
    1554:	48 8d 3d ae 0a 00 00 	lea    0xaae(%rip),%rdi        # 2009 <_IO_stdin_used+0x9>
    155b:	e8 60 fb ff ff       	call   10c0 <puts@plt>
    1560:	48 8d 3d d3 0b 00 00 	lea    0xbd3(%rip),%rdi        # 213a <_IO_stdin_used+0x13a>
    1567:	e8 54 fb ff ff       	call   10c0 <puts@plt>
    156c:	48 8d 3d df 0b 00 00 	lea    0xbdf(%rip),%rdi        # 2152 <_IO_stdin_used+0x152>
    1573:	e8 48 fb ff ff       	call   10c0 <puts@plt>
    1578:	48 8d 3d eb 0b 00 00 	lea    0xbeb(%rip),%rdi        # 216a <_IO_stdin_used+0x16a>
    157f:	e8 3c fb ff ff       	call   10c0 <puts@plt>
    1584:	48 8d 3d 7e 0a 00 00 	lea    0xa7e(%rip),%rdi        # 2009 <_IO_stdin_used+0x9>
    158b:	e8 30 fb ff ff       	call   10c0 <puts@plt>
    1590:	48 8d 3d 71 0a 00 00 	lea    0xa71(%rip),%rdi        # 2008 <_IO_stdin_used+0x8>
    1597:	e8 24 fb ff ff       	call   10c0 <puts@plt>
    159c:	48 8d 3d 3b 0b 00 00 	lea    0xb3b(%rip),%rdi        # 20de <_IO_stdin_used+0xde>
    15a3:	b8 00 00 00 00       	mov    $0x0,%eax
    15a8:	e8 23 fb ff ff       	call   10d0 <printf@plt>
    15ad:	48 8d 45 fc          	lea    -0x4(%rbp),%rax
    15b1:	48 89 c6             	mov    %rax,%rsi
    15b4:	48 8d 3d 27 0b 00 00 	lea    0xb27(%rip),%rdi        # 20e2 <_IO_stdin_used+0xe2>
    15bb:	b8 00 00 00 00       	mov    $0x0,%eax
    15c0:	e8 5b fb ff ff       	call   1120 <__isoc99_scanf@plt>
    15c5:	e8 36 fb ff ff       	call   1100 <getchar@plt>
    15ca:	8b 45 fc             	mov    -0x4(%rbp),%eax
    15cd:	83 f8 03             	cmp    $0x3,%eax
    15d0:	74 35                	je     1607 <menu+0xe3>
    15d2:	83 f8 03             	cmp    $0x3,%eax
    15d5:	7f 52                	jg     1629 <menu+0x105>
    15d7:	83 f8 01             	cmp    $0x1,%eax
    15da:	74 07                	je     15e3 <menu+0xbf>
    15dc:	83 f8 02             	cmp    $0x2,%eax
    15df:	74 1a                	je     15fb <menu+0xd7>
    15e1:	eb 46                	jmp    1629 <menu+0x105>
    15e3:	b8 00 00 00 00       	mov    $0x0,%eax
    15e8:	e8 ab fe ff ff       	call   1498 <admin_login>
    15ed:	48 8d 3d 8e 0b 00 00 	lea    0xb8e(%rip),%rdi        # 2182 <_IO_stdin_used+0x182>
    15f4:	e8 c7 fa ff ff       	call   10c0 <puts@plt>
    15f9:	eb 3b                	jmp    1636 <menu+0x112>
    15fb:	b8 00 00 00 00       	mov    $0x0,%eax
    1600:	e8 09 fd ff ff       	call   130e <user_login>
    1605:	eb 2f                	jmp    1636 <menu+0x112>
    1607:	48 8d 3d fa 09 00 00 	lea    0x9fa(%rip),%rdi        # 2008 <_IO_stdin_used+0x8>
    160e:	e8 ad fa ff ff       	call   10c0 <puts@plt>
    1613:	48 8d 3d 7c 0b 00 00 	lea    0xb7c(%rip),%rdi        # 2196 <_IO_stdin_used+0x196>
    161a:	e8 a1 fa ff ff       	call   10c0 <puts@plt>
    161f:	bf 00 00 00 00       	mov    $0x0,%edi
    1624:	e8 07 fb ff ff       	call   1130 <exit@plt>
    1629:	48 8d 3d 70 0b 00 00 	lea    0xb70(%rip),%rdi        # 21a0 <_IO_stdin_used+0x1a0>
    1630:	e8 8b fa ff ff       	call   10c0 <puts@plt>
    1635:	90                   	nop
    1636:	8b 45 fc             	mov    -0x4(%rbp),%eax
    1639:	83 f8 03             	cmp    $0x3,%eax
    163c:	0f 85 ee fe ff ff    	jne    1530 <menu+0xc>
    1642:	90                   	nop
    1643:	90                   	nop
    1644:	c9                   	leave  
    1645:	c3                   	ret    

0000000000001646 <main>:
    1646:	f3 0f 1e fa          	endbr64 
    164a:	55                   	push   %rbp
    164b:	48 89 e5             	mov    %rsp,%rbp
    164e:	b8 00 00 00 00       	mov    $0x0,%eax
    1653:	e8 d1 fb ff ff       	call   1229 <init>
    1658:	e8 c7 fe ff ff       	call   1524 <menu>
    165d:	b8 00 00 00 00       	mov    $0x0,%eax
    1662:	5d                   	pop    %rbp
    1663:	c3                   	ret    
    1664:	66 2e 0f 1f 84 00 00 	cs nopw 0x0(%rax,%rax,1)
    166b:	00 00 00 
    166e:	66 90                	xchg   %ax,%ax

0000000000001670 <__libc_csu_init>:
    1670:	f3 0f 1e fa          	endbr64 
    1674:	41 57                	push   %r15
    1676:	4c 8d 3d 03 27 00 00 	lea    0x2703(%rip),%r15        # 3d80 <__frame_dummy_init_array_entry>
    167d:	41 56                	push   %r14
    167f:	49 89 d6             	mov    %rdx,%r14
    1682:	41 55                	push   %r13
    1684:	49 89 f5             	mov    %rsi,%r13
    1687:	41 54                	push   %r12
    1689:	41 89 fc             	mov    %edi,%r12d
    168c:	55                   	push   %rbp
    168d:	48 8d 2d f4 26 00 00 	lea    0x26f4(%rip),%rbp        # 3d88 <__do_global_dtors_aux_fini_array_entry>
    1694:	53                   	push   %rbx
    1695:	4c 29 fd             	sub    %r15,%rbp
    1698:	48 83 ec 08          	sub    $0x8,%rsp
    169c:	e8 5f f9 ff ff       	call   1000 <_init>
    16a1:	48 c1 fd 03          	sar    $0x3,%rbp
    16a5:	74 1f                	je     16c6 <__libc_csu_init+0x56>
    16a7:	31 db                	xor    %ebx,%ebx
    16a9:	0f 1f 80 00 00 00 00 	nopl   0x0(%rax)
    16b0:	4c 89 f2             	mov    %r14,%rdx
    16b3:	4c 89 ee             	mov    %r13,%rsi
    16b6:	44 89 e7             	mov    %r12d,%edi
    16b9:	41 ff 14 df          	call   *(%r15,%rbx,8)
    16bd:	48 83 c3 01          	add    $0x1,%rbx
    16c1:	48 39 dd             	cmp    %rbx,%rbp
    16c4:	75 ea                	jne    16b0 <__libc_csu_init+0x40>
    16c6:	48 83 c4 08          	add    $0x8,%rsp
    16ca:	5b                   	pop    %rbx
    16cb:	5d                   	pop    %rbp
    16cc:	41 5c                	pop    %r12
    16ce:	41 5d                	pop    %r13
    16d0:	41 5e                	pop    %r14
    16d2:	41 5f                	pop    %r15
    16d4:	c3                   	ret    
    16d5:	66 66 2e 0f 1f 84 00 	data16 cs nopw 0x0(%rax,%rax,1)
    16dc:	00 00 00 00 

00000000000016e0 <__libc_csu_fini>:
    16e0:	f3 0f 1e fa          	endbr64 
    16e4:	c3                   	ret    

Disassembly of section .fini:

00000000000016e8 <_fini>:
    16e8:	f3 0f 1e fa          	endbr64 
    16ec:	48 83 ec 08          	sub    $0x8,%rsp
    16f0:	48 83 c4 08          	add    $0x8,%rsp
    16f4:	c3                   	ret    
